Certificate:
    Data:
        Version: 3 (0x2)
        Serial Number:
            81:64:e3:7c:b7:b0:e6:51
        Signature Algorithm: sha1WithRSAEncryption
        Issuer: C=GB, ST=Surrey, O=Dummy Company, OU=IT, CN=CA Person/emailAddress=ca@dummy
        Validity
            Not Before: Nov 20 07:01:19 2009 GMT
            Not After : Nov 19 07:01:19 2012 GMT
        Subject: C=GB, ST=Surrey, O=Dummy Company, OU=IT, CN=CA Person/emailAddress=ca@dummy
        Subject Public Key Info:
            Public Key Algorithm: rsaEncryption
            RSA Public Key: (1024 bit)
                Modulus (1024 bit):
                    00:bf:83:64:6f:30:eb:07:82:a9:0a:06:c6:f2:ed:
                    83:aa:8d:1d:3c:80:a4:12:0c:51:1c:1b:3a:9e:b9:
                    8b:1a:f1:0d:d3:17:ec:9f:c5:d4:23:b8:ef:4d:ce:
                    35:a4:fc:05:e8:c5:39:ab:6b:00:c2:df:22:8a:d5:
                    4d:95:4c:8b:b1:07:f3:71:61:a5:3d:f5:05:71:73:
                    cc:86:8c:10:69:42:f9:20:0c:71:29:22:b2:1a:f7:
                    a8:ca:5b:cd:e4:30:25:02:21:26:e6:07:e0:75:c6:
                    3f:d6:b6:c9:98:03:4d:1b:cf:b3:9d:55:3d:21:1b:
                    47:fb:12:27:55:7d:49:fc:9f
                Exponent: 65537 (0x10001)
        X509v3 extensions:
            X509v3 Subject Key Identifier: 
                B0:0F:8B:50:D0:4A:E4:0F:A4:84:31:05:E4:3D:E8:C6:F1:BE:7F:4F
            X509v3 Authority Key Identifier: 
                keyid:B0:0F:8B:50:D0:4A:E4:0F:A4:84:31:05:E4:3D:E8:C6:F1:BE:7F:4F
                DirName:/C=GB/ST=Surrey/O=Dummy Company/OU=IT/CN=CA Person/emailAddress=ca@dummy
                serial:81:64:E3:7C:B7:B0:E6:51

            X509v3 Basic Constraints: 
                CA:TRUE
    Signature Algorithm: sha1WithRSAEncryption
        77:2b:8c:f1:c3:2a:29:69:19:75:58:a4:e5:80:57:1a:d6:c7:
        d0:5f:9b:f7:c1:a1:ae:51:0e:95:35:0a:ee:8f:6b:fa:0a:57:
        90:a4:21:ae:46:f3:8b:7f:49:da:e6:93:7f:9b:f0:e3:64:55:
        50:93:4f:a4:35:22:ca:ef:de:f7:f9:f5:e8:13:f5:25:e3:e4:
        90:ba:84:42:a8:9b:36:74:8b:d0:de:ce:eb:d8:05:67:23:eb:
        08:24:c7:b3:9f:56:26:36:7b:46:40:d4:e9:11:d7:db:28:a0:
        c4:3e:45:f1:84:0a:e6:69:d9:81:79:d7:a2:9a:2d:64:21:c0:
        b3:bc
-----BEGIN CERTIFICATE-----
MIIDNDCCAp2gAwIBAgIJAIFk43y3sOZRMA0GCSqGSIb3DQEBBQUAMHAxCzAJBgNV
BAYTAkdCMQ8wDQYDVQQIEwZTdXJyZXkxFjAUBgNVBAoTDUR1bW15IENvbXBhbnkx
CzAJBgNVBAsTAklUMRIwEAYDVQQDEwlDQSBQZXJzb24xFzAVBgkqhkiG9w0BCQEW
CGNhQGR1bW15MB4XDTA5MTEyMDA3MDExOVoXDTEyMTExOTA3MDExOVowcDELMAkG
A1UEBhMCR0IxDzANBgNVBAgTBlN1cnJleTEWMBQGA1UEChMNRHVtbXkgQ29tcGFu
eTELMAkGA1UECxMCSVQxEjAQBgNVBAMTCUNBIFBlcnNvbjEXMBUGCSqGSIb3DQEJ
ARYIY2FAZHVtbXkwgZ8wDQYJKoZIhvcNAQEBBQADgY0AMIGJAoGBAL+DZG8w6weC
qQoGxvLtg6qNHTyApBIMURwbOp65ixrxDdMX7J/F1CO4703ONaT8BejFOatrAMLf
IorVTZVMi7EH83FhpT31BXFzzIaMEGlC+SAMcSkishr3qMpbzeQwJQIhJuYH4HXG
P9a2yZgDTRvPs51VPSEbR/sSJ1V9SfyfAgMBAAGjgdUwgdIwHQYDVR0OBBYEFLAP
i1DQSuQPpIQxBeQ96Mbxvn9PMIGiBgNVHSMEgZowgZeAFLAPi1DQSuQPpIQxBeQ9
6Mbxvn9PoXSkcjBwMQswCQYDVQQGEwJHQjEPMA0GA1UECBMGU3VycmV5MRYwFAYD
VQQKEw1EdW1teSBDb21wYW55MQswCQYDVQQLEwJJVDESMBAGA1UEAxMJQ0EgUGVy
c29uMRcwFQYJKoZIhvcNAQkBFghjYUBkdW1teYIJAIFk43y3sOZRMAwGA1UdEwQF
MAMBAf8wDQYJKoZIhvcNAQEFBQADgYEAdyuM8cMqKWkZdVik5YBXGtbH0F+b98Gh
rlEOlTUK7o9r+gpXkKQhrkbzi39J2uaTf5vw42RVUJNPpDUiyu/e9/n16BP1JePk
kLqEQqibNnSL0N7O69gFZyPrCCTHs59WJjZ7RkDU6RHX2yigxD5F8YQK5mnZgXnX
opotZCHAs7w=
-----END CERTIFICATE-----
