Certificate:
    Data:
        Version: 3 (0x2)
        Serial Number:
            a7:b8:05:91:90:f6:65:39
        Signature Algorithm: sha1WithRSAEncryption
        Issuer: C=GB, ST=Surrey, O=Dummy Company, OU=IT, CN=CA Person/emailAddress=ca@dummy
        Validity
            Not Before: Oct 28 18:55:00 2008 GMT
            Not After : Oct 28 18:55:00 2011 GMT
        Subject: C=GB, ST=Surrey, O=Dummy Company, OU=IT, CN=CA Person/emailAddress=ca@dummy
        Subject Public Key Info:
            Public Key Algorithm: rsaEncryption
            RSA Public Key: (1024 bit)
                Modulus (1024 bit):
                    00:ee:02:d4:c5:f7:b5:35:48:23:f3:d6:2a:3c:56:
                    38:cb:82:10:89:79:82:1b:5d:e6:39:01:f6:cf:7c:
                    7a:a8:f2:97:6c:d5:f9:4b:25:30:b0:cc:5a:40:ba:
                    14:76:e5:f4:f1:f3:f1:23:d6:83:42:33:0f:5d:53:
                    7a:e2:4d:cb:0f:c1:ed:33:25:9c:63:8e:66:83:cc:
                    7c:75:5b:2c:eb:33:91:37:05:7b:8a:17:45:4c:80:
                    3f:ae:a4:16:fc:22:3e:3d:92:1b:00:6a:4a:ce:93:
                    0e:4b:0b:dd:0a:7f:85:19:5d:3b:f5:f2:44:0e:05:
                    11:67:50:ce:91:91:2e:78:7d
                Exponent: 65537 (0x10001)
        X509v3 extensions:
            X509v3 Subject Key Identifier: 
                B9:DE:5A:30:E8:37:AB:DE:CF:95:E0:46:DA:31:DB:3F:6E:E8:EE:B3
            X509v3 Authority Key Identifier: 
                keyid:B9:DE:5A:30:E8:37:AB:DE:CF:95:E0:46:DA:31:DB:3F:6E:E8:EE:B3
                DirName:/C=GB/ST=Surrey/O=Dummy Company/OU=IT/CN=CA Person/emailAddress=ca@dummy
                serial:A7:B8:05:91:90:F6:65:39

            X509v3 Basic Constraints: 
                CA:TRUE
    Signature Algorithm: sha1WithRSAEncryption
        c7:16:69:eb:07:b5:da:d5:60:ca:c3:76:69:64:a3:3c:8a:e2:
        62:02:af:87:6f:ec:84:77:e2:00:f5:19:42:0e:88:ac:dd:71:
        f0:08:51:07:60:e5:90:78:0b:9b:06:2b:c1:94:fd:4a:b2:52:
        60:7c:27:a6:b2:4b:6a:0e:67:6e:67:cd:1c:d0:03:e3:6e:3e:
        54:28:9f:a3:d8:77:5e:be:a4:59:87:78:4c:41:83:66:08:97:
        c7:51:f0:74:64:d4:90:48:8c:ac:7d:b3:e0:a9:e8:af:07:5e:
        ce:e6:d0:5a:e8:42:ad:a6:e9:10:f9:64:1f:4b:c5:64:74:71:
        30:da
-----BEGIN CERTIFICATE-----
MIIDNDCCAp2gAwIBAgIJAKe4BZGQ9mU5MA0GCSqGSIb3DQEBBQUAMHAxCzAJBgNV
BAYTAkdCMQ8wDQYDVQQIEwZTdXJyZXkxFjAUBgNVBAoTDUR1bW15IENvbXBhbnkx
CzAJBgNVBAsTAklUMRIwEAYDVQQDEwlDQSBQZXJzb24xFzAVBgkqhkiG9w0BCQEW
CGNhQGR1bW15MB4XDTA4MTAyODE4NTU0OFoXDTExMTAyODE4NTU0OFowcDELMAkG
A1UEBhMCR0IxDzANBgNVBAgTBlN1cnJleTEWMBQGA1UEChMNRHVtbXkgQ29tcGFu
eTELMAkGA1UECxMCSVQxEjAQBgNVBAMTCUNBIFBlcnNvbjEXMBUGCSqGSIb3DQEJ
ARYIY2FAZHVtbXkwgZ8wDQYJKoZIhvcNAQEBBQADgY0AMIGJAoGBAO4C1MX3tTVI
I/PWKjxWOMuCEIl5ghtd5jkB9s98eqjyl2zV+UslMLDMWkC6FHbl9PHz8SPWg0Iz
D11TeuJNyw/B7TMlnGOOZoPMfHVbLOszkTcFe4oXRUyAP66kFvwiPj2SGwBqSs6T
DksL3Qp/hRldO/XyRA4FEWdQzpGRLnh9AgMBAAGjgdUwgdIwHQYDVR0OBBYEFLne
WjDoN6vez5XgRtox2z9u6O6zMIGiBgNVHSMEgZowgZeAFLneWjDoN6vez5XgRtox
2z9u6O6zoXSkcjBwMQswCQYDVQQGEwJHQjEPMA0GA1UECBMGU3VycmV5MRYwFAYD
VQQKEw1EdW1teSBDb21wYW55MQswCQYDVQQLEwJJVDESMBAGA1UEAxMJQ0EgUGVy
c29uMRcwFQYJKoZIhvcNAQkBFghjYUBkdW1teYIJAKe4BZGQ9mU5MAwGA1UdEwQF
MAMBAf8wDQYJKoZIhvcNAQEFBQADgYEAxxZp6we12tVgysN2aWSjPIriYgKvh2/s
hHfiAPUZQg6IrN1x8AhRB2DlkHgLmwYrwZT9SrJSYHwnprJLag5nbmfNHNAD424+
VCifo9h3Xr6kWYd4TEGDZgiXx1HwdGTUkEiMrH2z4KnorwdezubQWuhCrabpEPlk
H0vFZHRxMNo=
-----END CERTIFICATE-----
