Certificate:
    Data:
        Version: 3 (0x2)
        Serial Number:
            8f:2b:cd:06:57:f0:6f:30
        Signature Algorithm: sha1WithRSAEncryption
        Issuer: C=GB, ST=Surrey, O=Dummy Company, OU=IT, CN=CA Person/emailAddress=ca@dummy
        Validity
            Not Before: Apr 21 09:44:59 2007 GMT
            Not After : Apr 20 09:44:59 2010 GMT
        Subject: C=GB, ST=Surrey, O=Dummy Company, OU=IT, CN=CA Person/emailAddress=ca@dummy
        Subject Public Key Info:
            Public Key Algorithm: rsaEncryption
            RSA Public Key: (1024 bit)
                Modulus (1024 bit):
                    00:d9:6d:4c:5c:5d:a8:85:7b:49:04:2c:d7:2f:ae:
                    2b:1e:a1:2f:b9:a3:9b:ff:18:c6:dd:e7:a5:fe:ad:
                    65:e2:42:ba:f1:9f:bc:5b:33:ad:f7:f1:77:6a:47:
                    51:73:bd:9a:60:51:8e:85:d6:0c:ba:04:20:46:ab:
                    9c:34:97:c5:b6:d3:ea:a4:08:12:d9:2b:e0:17:07:
                    c3:53:43:24:aa:6f:d6:51:19:3d:31:11:97:c9:e8:
                    bf:81:23:d3:fa:84:98:6b:d8:fb:41:f0:dc:c8:76:
                    1d:98:2d:c6:02:08:1d:ae:88:c6:8c:f0:bb:3b:d0:
                    e8:3e:92:42:cb:c1:6a:9b:a3
                Exponent: 65537 (0x10001)
        X509v3 extensions:
            X509v3 Subject Key Identifier: 
                12:4A:AB:B6:61:83:8D:28:4B:70:1F:B9:CF:F1:C9:3E:EF:47:9F:04
            X509v3 Authority Key Identifier: 
                keyid:12:4A:AB:B6:61:83:8D:28:4B:70:1F:B9:CF:F1:C9:3E:EF:47:9F:04
                DirName:/C=GB/ST=Surrey/O=Dummy Company/OU=IT/CN=CA Person/emailAddress=ca@dummy
                serial:8F:2B:CD:06:57:F0:6F:30

            X509v3 Basic Constraints: 
                CA:TRUE
    Signature Algorithm: sha1WithRSAEncryption
        7a:6c:af:5a:14:81:3a:35:da:74:ad:8e:1f:c0:72:c0:68:b2:
        b2:37:fb:f0:7b:73:a9:86:d1:68:1e:4d:36:00:81:97:96:ef:
        fe:db:21:f3:d8:5c:10:dd:b8:a4:19:09:c7:55:b9:e4:be:0a:
        26:3e:a8:8e:cb:62:95:cc:72:db:bd:29:6d:7c:56:31:34:d1:
        c2:56:f6:f5:5a:fb:47:db:86:9c:12:9f:22:dd:6a:ed:7e:7b:
        75:69:71:bb:f1:78:7e:77:96:66:f5:44:c1:ce:c6:d3:3a:b3:
        c9:fc:47:28:33:0c:84:35:ad:90:83:19:06:b5:45:72:b8:d5:
        44:b8
-----BEGIN CERTIFICATE-----
MIIDNDCCAp2gAwIBAgIJAI8rzQZX8G8wMA0GCSqGSIb3DQEBBQUAMHAxCzAJBgNV
BAYTAkdCMQ8wDQYDVQQIEwZTdXJyZXkxFjAUBgNVBAoTDUR1bW15IENvbXBhbnkx
CzAJBgNVBAsTAklUMRIwEAYDVQQDEwlDQSBQZXJzb24xFzAVBgkqhkiG9w0BCQEW
CGNhQGR1bW15MB4XDTA3MDQyMTA5NDQ1OVoXDTEwMDQyMDA5NDQ1OVowcDELMAkG
A1UEBhMCR0IxDzANBgNVBAgTBlN1cnJleTEWMBQGA1UEChMNRHVtbXkgQ29tcGFu
eTELMAkGA1UECxMCSVQxEjAQBgNVBAMTCUNBIFBlcnNvbjEXMBUGCSqGSIb3DQEJ
ARYIY2FAZHVtbXkwgZ8wDQYJKoZIhvcNAQEBBQADgY0AMIGJAoGBANltTFxdqIV7
SQQs1y+uKx6hL7mjm/8Yxt3npf6tZeJCuvGfvFszrffxd2pHUXO9mmBRjoXWDLoE
IEarnDSXxbbT6qQIEtkr4BcHw1NDJKpv1lEZPTERl8nov4Ej0/qEmGvY+0Hw3Mh2
HZgtxgIIHa6IxozwuzvQ6D6SQsvBapujAgMBAAGjgdUwgdIwHQYDVR0OBBYEFBJK
q7Zhg40oS3Afuc/xyT7vR58EMIGiBgNVHSMEgZowgZeAFBJKq7Zhg40oS3Afuc/x
yT7vR58EoXSkcjBwMQswCQYDVQQGEwJHQjEPMA0GA1UECBMGU3VycmV5MRYwFAYD
VQQKEw1EdW1teSBDb21wYW55MQswCQYDVQQLEwJJVDESMBAGA1UEAxMJQ0EgUGVy
c29uMRcwFQYJKoZIhvcNAQkBFghjYUBkdW1teYIJAI8rzQZX8G8wMAwGA1UdEwQF
MAMBAf8wDQYJKoZIhvcNAQEFBQADgYEAemyvWhSBOjXadK2OH8BywGiysjf78Htz
qYbRaB5NNgCBl5bv/tsh89hcEN24pBkJx1W55L4KJj6ojstilcxy270pbXxWMTTR
wlb29Vr7R9uGnBKfIt1q7X57dWlxu/F4fneWZvVEwc7G0zqzyfxHKDMMhDWtkIMZ
BrVFcrjVRLg=
-----END CERTIFICATE-----
