Certificate:
    Data:
        Version: 3 (0x2)
        Serial Number:
            a7:b8:05:91:90:f6:65:3b
        Signature Algorithm: sha1WithRSAEncryption
        Issuer: C=GB, ST=Surrey, O=Dummy Company, OU=IT, CN=CA Person/emailAddress=ca@dummy
        Validity
            Not Before: Oct 28 18:56:00 2008 GMT
            Not After : Oct 28 18:56:00 2009 GMT
        Subject: C=GB, ST=Surrey, L=Camberley, O=Dummy Company, OU=IT, CN=client@dummy/emailAddress=client@dummy
        Subject Public Key Info:
            Public Key Algorithm: rsaEncryption
            RSA Public Key: (1024 bit)
                Modulus (1024 bit):
                    00:b8:7a:3a:d7:c6:2f:06:d6:e9:ee:b1:d8:e1:40:
                    b2:11:4c:db:ec:2f:b6:58:9c:ea:db:cb:02:13:58:
                    39:26:b5:1c:a0:30:74:29:2f:07:70:8e:c3:ae:e5:
                    62:a3:4d:2b:99:23:23:b0:c6:b0:6e:45:82:b5:e3:
                    35:9d:b7:2e:23:0d:06:74:4f:ea:92:ec:5f:ad:19:
                    b3:3c:22:ed:fb:71:28:06:75:73:ed:1a:cf:22:02:
                    f2:b7:fa:7e:76:e1:56:03:a2:c4:5f:94:f8:67:d4:
                    d7:3f:65:f0:9c:b6:df:e5:bf:79:38:2d:9a:c5:78:
                    38:51:32:41:5e:c7:fb:ee:bf
                Exponent: 65537 (0x10001)
        X509v3 extensions:
            X509v3 Basic Constraints: 
                CA:FALSE
            Netscape Comment: 
                OpenSSL Generated Certificate
            X509v3 Subject Key Identifier: 
                8C:CC:C1:1A:96:1D:3C:C9:6E:88:5E:DC:30:63:8A:AF:2A:59:12:6F
            X509v3 Authority Key Identifier: 
                keyid:B9:DE:5A:30:E8:37:AB:DE:CF:95:E0:46:DA:31:DB:3F:6E:E8:EE:B3

    Signature Algorithm: sha1WithRSAEncryption
        b6:e8:84:e2:ed:e7:9f:57:ca:fc:c5:bb:fc:e4:ef:86:0e:33:
        5a:2d:d5:3b:3c:ad:60:f7:89:f4:dc:0a:76:bd:8e:a5:97:05:
        88:d1:35:0c:a0:a2:05:a3:94:13:1a:75:e9:96:b3:1a:e8:c2:
        9f:6f:84:a5:b9:55:4a:73:8b:d3:ac:ec:3c:06:ba:4c:f4:d7:
        bb:5d:33:f3:7e:68:e4:d5:e1:f0:76:b4:e8:44:f8:f4:67:ba:
        53:66:02:5e:c8:f9:b4:2d:4c:c6:e2:e9:1e:b0:25:17:9b:f8:
        94:b1:11:06:c8:7d:0f:21:f4:a4:a4:2c:dd:b4:d1:67:6e:f3:
        de:ee
-----BEGIN CERTIFICATE-----
MIIC9TCCAl6gAwIBAgIJAKe4BZGQ9mU7MA0GCSqGSIb3DQEBBQUAMHAxCzAJBgNV
BAYTAkdCMQ8wDQYDVQQIEwZTdXJyZXkxFjAUBgNVBAoTDUR1bW15IENvbXBhbnkx
CzAJBgNVBAsTAklUMRIwEAYDVQQDEwlDQSBQZXJzb24xFzAVBgkqhkiG9w0BCQEW
CGNhQGR1bW15MB4XDTA4MTAyODE4NTY1M1oXDTA5MTAyODE4NTY1M1owgYsxCzAJ
BgNVBAYTAkdCMQ8wDQYDVQQIEwZTdXJyZXkxEjAQBgNVBAcTCUNhbWJlcmxleTEW
MBQGA1UEChMNRHVtbXkgQ29tcGFueTELMAkGA1UECxMCSVQxFTATBgNVBAMUDGNs
aWVudEBkdW1teTEbMBkGCSqGSIb3DQEJARYMY2xpZW50QGR1bW15MIGfMA0GCSqG
SIb3DQEBAQUAA4GNADCBiQKBgQC4ejrXxi8G1unusdjhQLIRTNvsL7ZYnOrbywIT
WDkmtRygMHQpLwdwjsOu5WKjTSuZIyOwxrBuRYK14zWdty4jDQZ0T+qS7F+tGbM8
Iu37cSgGdXPtGs8iAvK3+n524VYDosRflPhn1Nc/ZfCctt/lv3k4LZrFeDhRMkFe
x/vuvwIDAQABo3sweTAJBgNVHRMEAjAAMCwGCWCGSAGG+EIBDQQfFh1PcGVuU1NM
IEdlbmVyYXRlZCBDZXJ0aWZpY2F0ZTAdBgNVHQ4EFgQUjMzBGpYdPMluiF7cMGOK
rypZEm8wHwYDVR0jBBgwFoAUud5aMOg3q97PleBG2jHbP27o7rMwDQYJKoZIhvcN
AQEFBQADgYEAtuiE4u3nn1fK/MW7/OTvhg4zWi3VOzytYPeJ9NwKdr2OpZcFiNE1
DKCiBaOUExp16ZazGujCn2+EpblVSnOL06zsPAa6TPTXu10z835o5NXh8Ha06ET4
9Ge6U2YCXsj5tC1MxuLpHrAlF5v4lLERBsh9DyH0pKQs3bTRZ27z3u4=
-----END CERTIFICATE-----
