Certificate:
    Data:
        Version: 3 (0x2)
        Serial Number:
            8f:2b:cd:06:57:f0:6f:32
        Signature Algorithm: sha1WithRSAEncryption
        Issuer: C=GB, ST=Surrey, O=Dummy Company, OU=IT, CN=CA Person/emailAddress=ca@dummy
        Validity
            Not Before: Apr 21 09:51:34 2007 GMT
            Not After : Apr 20 09:51:34 2008 GMT
        Subject: C=GB, ST=Surrey, L=Camberley, O=Dummy Company, OU=IT, CN=Client System/emailAddress=client@dummy
        Subject Public Key Info:
            Public Key Algorithm: rsaEncryption
            RSA Public Key: (1024 bit)
                Modulus (1024 bit):
                    00:99:94:9c:35:ce:1e:03:c1:23:b6:33:22:a5:cb:
                    4c:3c:0d:01:8c:99:87:87:06:ff:dd:4e:d0:59:eb:
                    be:6f:9c:c5:b4:5b:04:48:2b:0d:3e:e7:95:02:76:
                    df:b9:fd:c3:51:b6:2f:bf:12:c4:62:7e:c8:87:c1:
                    76:99:dd:ee:bc:35:44:bc:e7:99:ed:01:c8:17:cb:
                    a6:71:30:d6:37:8b:db:a7:c6:d3:39:dc:16:96:07:
                    9a:ab:50:4b:17:e1:c3:68:c2:68:f1:56:f1:af:5d:
                    d5:fd:5e:d1:2f:19:a5:2b:f7:68:70:15:5a:4e:dd:
                    aa:98:39:97:79:3a:6d:84:55
                Exponent: 65537 (0x10001)
        X509v3 extensions:
            X509v3 Basic Constraints: 
                CA:FALSE
            Netscape Comment: 
                OpenSSL Generated Certificate
            X509v3 Subject Key Identifier: 
                42:A7:82:06:B2:34:F4:7D:06:B0:EF:21:8C:65:BD:FA:E9:0F:5A:06
            X509v3 Authority Key Identifier: 
                keyid:12:4A:AB:B6:61:83:8D:28:4B:70:1F:B9:CF:F1:C9:3E:EF:47:9F:04

    Signature Algorithm: sha1WithRSAEncryption
        0e:e8:8a:34:e1:ca:e5:32:9c:ef:1f:fc:ce:1d:a5:0d:ce:e9:
        58:66:5f:98:21:05:cb:31:45:47:32:92:59:17:58:b5:d4:73:
        64:59:87:f6:3e:2d:57:57:51:58:ad:9c:9e:54:62:e7:fe:98:
        09:2a:4e:e4:4a:7c:80:2c:ed:8e:fa:7b:2d:11:0a:8a:9b:30:
        9c:bc:3c:ea:36:69:19:05:28:08:7d:cd:62:3c:d6:26:1c:b8:
        50:fd:a5:7f:2c:66:aa:2f:04:ca:07:39:5e:53:56:5b:44:74:
        40:2b:a2:bc:66:d0:59:f4:18:08:10:de:e0:ce:5e:8c:51:7f:
        20:84
-----BEGIN CERTIFICATE-----
MIIC9jCCAl+gAwIBAgIJAI8rzQZX8G8yMA0GCSqGSIb3DQEBBQUAMHAxCzAJBgNV
BAYTAkdCMQ8wDQYDVQQIEwZTdXJyZXkxFjAUBgNVBAoTDUR1bW15IENvbXBhbnkx
CzAJBgNVBAsTAklUMRIwEAYDVQQDEwlDQSBQZXJzb24xFzAVBgkqhkiG9w0BCQEW
CGNhQGR1bW15MB4XDTA3MDQyMTA5NTEzNFoXDTA4MDQyMDA5NTEzNFowgYwxCzAJ
BgNVBAYTAkdCMQ8wDQYDVQQIEwZTdXJyZXkxEjAQBgNVBAcTCUNhbWJlcmxleTEW
MBQGA1UEChMNRHVtbXkgQ29tcGFueTELMAkGA1UECxMCSVQxFjAUBgNVBAMTDUNs
aWVudCBTeXN0ZW0xGzAZBgkqhkiG9w0BCQEWDGNsaWVudEBkdW1teTCBnzANBgkq
hkiG9w0BAQEFAAOBjQAwgYkCgYEAmZScNc4eA8EjtjMipctMPA0BjJmHhwb/3U7Q
Weu+b5zFtFsESCsNPueVAnbfuf3DUbYvvxLEYn7Ih8F2md3uvDVEvOeZ7QHIF8um
cTDWN4vbp8bTOdwWlgeaq1BLF+HDaMJo8Vbxr13V/V7RLxmlK/docBVaTt2qmDmX
eTpthFUCAwEAAaN7MHkwCQYDVR0TBAIwADAsBglghkgBhvhCAQ0EHxYdT3BlblNT
TCBHZW5lcmF0ZWQgQ2VydGlmaWNhdGUwHQYDVR0OBBYEFEKnggayNPR9BrDvIYxl
vfrpD1oGMB8GA1UdIwQYMBaAFBJKq7Zhg40oS3Afuc/xyT7vR58EMA0GCSqGSIb3
DQEBBQUAA4GBAA7oijThyuUynO8f/M4dpQ3O6VhmX5ghBcsxRUcyklkXWLXUc2RZ
h/Y+LVdXUVitnJ5UYuf+mAkqTuRKfIAs7Y76ey0RCoqbMJy8POo2aRkFKAh9zWI8
1iYcuFD9pX8sZqovBMoHOV5TVltEdEArorxm0Fn0GAgQ3uDOXoxRfyCE
-----END CERTIFICATE-----
