Certificate:
    Data:
        Version: 3 (0x2)
        Serial Number:
            81:64:e3:7c:b7:b0:e6:53
        Signature Algorithm: sha1WithRSAEncryption
        Issuer: C=GB, ST=Surrey, O=Dummy Company, OU=IT, CN=CA Person/emailAddress=ca@dummy
        Validity
            Not Before: Nov 20 07:04:12 2009 GMT
            Not After : Nov 20 07:04:12 2010 GMT
        Subject: C=GB, ST=Surrey, L=Camberley, O=Dummy Company, OU=IT, CN=Client System/emailAddress=client@dummy
        Subject Public Key Info:
            Public Key Algorithm: rsaEncryption
            RSA Public Key: (1024 bit)
                Modulus (1024 bit):
                    00:d0:be:65:e6:14:4a:5f:8a:26:ae:2e:22:76:ff:
                    86:c1:91:eb:e4:bc:87:fe:e7:4b:88:d4:24:87:4c:
                    a9:12:98:c2:de:94:de:dd:7a:84:9d:e5:d2:ae:6e:
                    05:d1:90:59:8c:78:5e:06:19:57:3d:06:51:99:08:
                    8b:a0:c3:90:6c:54:45:05:8b:4f:06:3b:5a:26:67:
                    d2:e3:1f:ba:c6:c9:55:9d:e5:00:83:3d:04:ec:9d:
                    85:23:be:48:4b:bf:02:a1:c8:e3:e3:a4:43:d8:33:
                    45:74:45:3b:5e:9c:db:09:a3:f7:3d:16:21:48:39:
                    64:3a:21:fb:b1:75:81:b4:e3
                Exponent: 65537 (0x10001)
        X509v3 extensions:
            X509v3 Basic Constraints: 
                CA:FALSE
            Netscape Comment: 
                OpenSSL Generated Certificate
            X509v3 Subject Key Identifier: 
                C0:77:6D:05:0F:6E:F9:37:1C:D4:FD:F6:54:09:27:A9:03:21:B6:00
            X509v3 Authority Key Identifier: 
                keyid:B0:0F:8B:50:D0:4A:E4:0F:A4:84:31:05:E4:3D:E8:C6:F1:BE:7F:4F

    Signature Algorithm: sha1WithRSAEncryption
        6e:24:d7:f6:28:b6:4b:ec:75:45:7f:be:01:6f:33:89:b6:06:
        df:b3:56:5f:a8:e4:68:63:ff:77:21:2e:91:be:b6:b4:7e:0c:
        cd:21:b8:9f:f8:b6:0a:b0:5c:c4:b9:ea:93:0d:80:7a:3f:5e:
        bd:92:46:0a:a5:55:22:2f:9f:58:83:1c:14:b6:b7:27:7b:20:
        c0:98:ec:2a:66:cf:5a:0a:65:64:4d:cd:64:54:38:50:dc:0e:
        2b:d9:92:2d:a3:98:2f:1b:73:63:ef:b6:e2:87:29:4b:8c:84:
        2c:2e:1c:06:d8:32:28:bf:73:64:75:83:9f:7f:60:c8:bf:02:
        1c:82
-----BEGIN CERTIFICATE-----
MIIC9jCCAl+gAwIBAgIJAIFk43y3sOZTMA0GCSqGSIb3DQEBBQUAMHAxCzAJBgNV
BAYTAkdCMQ8wDQYDVQQIEwZTdXJyZXkxFjAUBgNVBAoTDUR1bW15IENvbXBhbnkx
CzAJBgNVBAsTAklUMRIwEAYDVQQDEwlDQSBQZXJzb24xFzAVBgkqhkiG9w0BCQEW
CGNhQGR1bW15MB4XDTA5MTEyMDA3MDQxMloXDTEwMTEyMDA3MDQxMlowgYwxCzAJ
BgNVBAYTAkdCMQ8wDQYDVQQIEwZTdXJyZXkxEjAQBgNVBAcTCUNhbWJlcmxleTEW
MBQGA1UEChMNRHVtbXkgQ29tcGFueTELMAkGA1UECxMCSVQxFjAUBgNVBAMTDUNs
aWVudCBTeXN0ZW0xGzAZBgkqhkiG9w0BCQEWDGNsaWVudEBkdW1teTCBnzANBgkq
hkiG9w0BAQEFAAOBjQAwgYkCgYEA0L5l5hRKX4omri4idv+GwZHr5LyH/udLiNQk
h0ypEpjC3pTe3XqEneXSrm4F0ZBZjHheBhlXPQZRmQiLoMOQbFRFBYtPBjtaJmfS
4x+6xslVneUAgz0E7J2FI75IS78Cocjj46RD2DNFdEU7XpzbCaP3PRYhSDlkOiH7
sXWBtOMCAwEAAaN7MHkwCQYDVR0TBAIwADAsBglghkgBhvhCAQ0EHxYdT3BlblNT
TCBHZW5lcmF0ZWQgQ2VydGlmaWNhdGUwHQYDVR0OBBYEFMB3bQUPbvk3HNT99lQJ
J6kDIbYAMB8GA1UdIwQYMBaAFLAPi1DQSuQPpIQxBeQ96Mbxvn9PMA0GCSqGSIb3
DQEBBQUAA4GBAG4k1/YotkvsdUV/vgFvM4m2Bt+zVl+o5Ghj/3chLpG+trR+DM0h
uJ/4tgqwXMS56pMNgHo/Xr2SRgqlVSIvn1iDHBS2tyd7IMCY7Cpmz1oKZWRNzWRU
OFDcDivZki2jmC8bc2PvtuKHKUuMhCwuHAbYMii/c2R1g59/YMi/AhyC
-----END CERTIFICATE-----
