Certificate:
    Data:
        Version: 3 (0x2)
        Serial Number:
            a7:b8:05:91:90:f6:65:3a
        Signature Algorithm: sha1WithRSAEncryption
        Issuer: C=GB, ST=Surrey, O=Dummy Company, OU=IT, CN=CA Person/emailAddress=ca@dummy
        Validity
            Not Before: Oct 28 18:56:00 2008 GMT
            Not After : Oct 28 18:56:00 2009 GMT
        Subject: C=GB, ST=Surrey, L=Camberley, O=Dummy Company, OU=IT, CN=Server System/emailAddress=server@dummy
        Subject Public Key Info:
            Public Key Algorithm: rsaEncryption
            RSA Public Key: (1024 bit)
                Modulus (1024 bit):
                    00:d3:d8:6e:7c:3c:d4:67:3e:a7:53:81:a9:b0:f5:
                    f9:69:f4:3f:22:f1:63:b7:6c:3a:bb:b8:00:ef:bf:
                    3d:1f:68:41:c4:4d:61:60:64:e6:2c:aa:0f:8e:15:
                    26:2c:44:3b:7b:cb:c9:36:ff:48:4d:fd:28:94:85:
                    7b:54:a2:f8:7e:24:df:c4:75:b1:eb:bd:19:ec:30:
                    46:68:10:1f:a8:53:e2:71:48:8b:41:72:d7:3b:1e:
                    6d:e7:b2:a8:c1:c5:a0:ee:9e:dc:17:a5:cd:b0:50:
                    99:1f:8b:59:6f:d5:6e:79:a7:1a:a5:5b:e8:51:ee:
                    fe:44:bf:ec:4d:d7:bb:28:b5
                Exponent: 65537 (0x10001)
        X509v3 extensions:
            X509v3 Basic Constraints: 
                CA:FALSE
            Netscape Comment: 
                OpenSSL Generated Certificate
            X509v3 Subject Key Identifier: 
                08:BE:F8:01:1E:3C:43:27:AB:20:97:41:E9:87:F6:3C:57:39:80:1B
            X509v3 Authority Key Identifier: 
                keyid:B9:DE:5A:30:E8:37:AB:DE:CF:95:E0:46:DA:31:DB:3F:6E:E8:EE:B3

    Signature Algorithm: sha1WithRSAEncryption
        95:4e:85:4f:c9:17:a9:bd:5d:12:bf:93:5d:5f:55:ab:94:29:
        59:84:30:ae:f4:bc:71:b6:e7:57:6c:a5:42:6e:87:45:59:46:
        2d:3b:a4:12:ad:43:03:9c:1d:a9:47:af:80:9a:4f:71:09:d8:
        bc:b4:1c:ce:9c:5b:d3:d7:d4:39:24:02:c2:00:bb:0d:92:c3:
        55:b3:76:f1:82:a5:21:08:54:44:09:43:8a:02:99:4e:9b:a5:
        e0:81:07:2a:43:b2:5a:f5:43:e5:56:9a:fe:f5:b7:76:e2:3f:
        7b:f3:68:2b:35:b4:3a:38:43:b2:13:81:b9:81:78:e6:71:8f:
        a3:09
-----BEGIN CERTIFICATE-----
MIIC9jCCAl+gAwIBAgIJAKe4BZGQ9mU6MA0GCSqGSIb3DQEBBQUAMHAxCzAJBgNV
BAYTAkdCMQ8wDQYDVQQIEwZTdXJyZXkxFjAUBgNVBAoTDUR1bW15IENvbXBhbnkx
CzAJBgNVBAsTAklUMRIwEAYDVQQDEwlDQSBQZXJzb24xFzAVBgkqhkiG9w0BCQEW
CGNhQGR1bW15MB4XDTA4MTAyODE4NTYyMVoXDTA5MTAyODE4NTYyMVowgYwxCzAJ
BgNVBAYTAkdCMQ8wDQYDVQQIEwZTdXJyZXkxEjAQBgNVBAcTCUNhbWJlcmxleTEW
MBQGA1UEChMNRHVtbXkgQ29tcGFueTELMAkGA1UECxMCSVQxFjAUBgNVBAMTDVNl
cnZlciBTeXN0ZW0xGzAZBgkqhkiG9w0BCQEWDHNlcnZlckBkdW1teTCBnzANBgkq
hkiG9w0BAQEFAAOBjQAwgYkCgYEA09hufDzUZz6nU4GpsPX5afQ/IvFjt2w6u7gA
7789H2hBxE1hYGTmLKoPjhUmLEQ7e8vJNv9ITf0olIV7VKL4fiTfxHWx670Z7DBG
aBAfqFPicUiLQXLXOx5t57KowcWg7p7cF6XNsFCZH4tZb9VueacapVvoUe7+RL/s
Tde7KLUCAwEAAaN7MHkwCQYDVR0TBAIwADAsBglghkgBhvhCAQ0EHxYdT3BlblNT
TCBHZW5lcmF0ZWQgQ2VydGlmaWNhdGUwHQYDVR0OBBYEFAi++AEePEMnqyCXQemH
9jxXOYAbMB8GA1UdIwQYMBaAFLneWjDoN6vez5XgRtox2z9u6O6zMA0GCSqGSIb3
DQEBBQUAA4GBAJVOhU/JF6m9XRK/k11fVauUKVmEMK70vHG251dspUJuh0VZRi07
pBKtQwOcHalHr4CaT3EJ2Ly0HM6cW9PX1DkkAsIAuw2Sw1WzdvGCpSEIVEQJQ4oC
mU6bpeCBBypDslr1Q+VWmv71t3biP3vzaCs1tDo4Q7ITgbmBeOZxj6MJ
-----END CERTIFICATE-----
