Certificate:
    Data:
        Version: 3 (0x2)
        Serial Number:
            8f:2b:cd:06:57:f0:6f:31
        Signature Algorithm: sha1WithRSAEncryption
        Issuer: C=GB, ST=Surrey, O=Dummy Company, OU=IT, CN=CA Person/emailAddress=ca@dummy
        Validity
            Not Before: Apr 21 09:50:36 2007 GMT
            Not After : Apr 20 09:50:36 2008 GMT
        Subject: C=GB, ST=Surrey, L=Camberley, O=Dummy Company, OU=IT, CN=Server System/emailAddress=server@dummy
        Subject Public Key Info:
            Public Key Algorithm: rsaEncryption
            RSA Public Key: (1024 bit)
                Modulus (1024 bit):
                    00:df:b4:df:46:83:fa:c0:2a:96:7b:03:94:66:8c:
                    76:2a:3b:df:91:92:5b:35:eb:af:79:f3:fc:f2:db:
                    61:3e:73:8e:43:8f:eb:b0:b0:73:e9:21:ef:7d:f5:
                    2e:51:9e:3e:29:d0:62:f9:80:36:f9:43:2a:c0:3d:
                    2c:9a:0b:33:5e:9f:d5:d7:71:c2:f0:01:66:56:4b:
                    68:62:26:70:f6:20:83:e9:e6:92:ac:92:e8:e4:fb:
                    e9:a0:49:58:2d:85:0e:7c:25:58:78:42:0e:b9:13:
                    ee:f4:ac:0b:c1:8a:25:56:1e:48:49:c9:3d:e0:c0:
                    e4:56:12:d7:1a:8b:f3:0e:87
                Exponent: 65537 (0x10001)
        X509v3 extensions:
            X509v3 Basic Constraints: 
                CA:FALSE
            Netscape Comment: 
                OpenSSL Generated Certificate
            X509v3 Subject Key Identifier: 
                D6:11:83:1A:DA:3F:42:E1:FE:D4:B2:83:A3:24:D3:6F:12:F4:85:A6
            X509v3 Authority Key Identifier: 
                keyid:12:4A:AB:B6:61:83:8D:28:4B:70:1F:B9:CF:F1:C9:3E:EF:47:9F:04

    Signature Algorithm: sha1WithRSAEncryption
        0c:ec:01:9b:64:a9:04:3d:c2:97:98:0f:43:47:7d:94:88:20:
        aa:f4:44:67:9d:f0:d4:53:3a:7b:d8:74:95:e3:cd:08:f6:bc:
        99:f1:d3:bf:6d:94:8a:d2:7b:71:39:9f:01:2f:4f:d3:07:26:
        aa:69:fa:be:d9:f9:69:7a:bb:0e:c0:73:77:7a:e5:bc:5a:64:
        81:ea:53:cd:68:ad:6e:64:fb:c8:a1:cd:66:ff:84:25:11:67:
        c6:bc:59:5a:50:28:ee:94:d6:de:b7:75:fa:eb:70:86:bb:62:
        a9:d9:4f:5e:b1:9d:ac:75:8e:43:65:aa:3f:e7:9f:ae:57:5c:
        4b:58
-----BEGIN CERTIFICATE-----
MIIC9jCCAl+gAwIBAgIJAI8rzQZX8G8xMA0GCSqGSIb3DQEBBQUAMHAxCzAJBgNV
BAYTAkdCMQ8wDQYDVQQIEwZTdXJyZXkxFjAUBgNVBAoTDUR1bW15IENvbXBhbnkx
CzAJBgNVBAsTAklUMRIwEAYDVQQDEwlDQSBQZXJzb24xFzAVBgkqhkiG9w0BCQEW
CGNhQGR1bW15MB4XDTA3MDQyMTA5NTAzNloXDTA4MDQyMDA5NTAzNlowgYwxCzAJ
BgNVBAYTAkdCMQ8wDQYDVQQIEwZTdXJyZXkxEjAQBgNVBAcTCUNhbWJlcmxleTEW
MBQGA1UEChMNRHVtbXkgQ29tcGFueTELMAkGA1UECxMCSVQxFjAUBgNVBAMTDVNl
cnZlciBTeXN0ZW0xGzAZBgkqhkiG9w0BCQEWDHNlcnZlckBkdW1teTCBnzANBgkq
hkiG9w0BAQEFAAOBjQAwgYkCgYEA37TfRoP6wCqWewOUZox2KjvfkZJbNeuvefP8
8tthPnOOQ4/rsLBz6SHvffUuUZ4+KdBi+YA2+UMqwD0smgszXp/V13HC8AFmVkto
YiZw9iCD6eaSrJLo5PvpoElYLYUOfCVYeEIOuRPu9KwLwYolVh5ISck94MDkVhLX
GovzDocCAwEAAaN7MHkwCQYDVR0TBAIwADAsBglghkgBhvhCAQ0EHxYdT3BlblNT
TCBHZW5lcmF0ZWQgQ2VydGlmaWNhdGUwHQYDVR0OBBYEFNYRgxraP0Lh/tSyg6Mk
028S9IWmMB8GA1UdIwQYMBaAFBJKq7Zhg40oS3Afuc/xyT7vR58EMA0GCSqGSIb3
DQEBBQUAA4GBAAzsAZtkqQQ9wpeYD0NHfZSIIKr0RGed8NRTOnvYdJXjzQj2vJnx
079tlIrSe3E5nwEvT9MHJqpp+r7Z+Wl6uw7Ac3d65bxaZIHqU81orW5k+8ihzWb/
hCURZ8a8WVpQKO6U1t63dfrrcIa7YqnZT16xnax1jkNlqj/nn65XXEtY
-----END CERTIFICATE-----
