Certificate:
    Data:
        Version: 3 (0x2)
        Serial Number:
            81:64:e3:7c:b7:b0:e6:52
        Signature Algorithm: sha1WithRSAEncryption
        Issuer: C=GB, ST=Surrey, O=Dummy Company, OU=IT, CN=CA Person/emailAddress=ca@dummy
        Validity
            Not Before: Nov 20 07:02:55 2009 GMT
            Not After : Nov 20 07:02:55 2010 GMT
        Subject: C=GB, ST=Surrey, L=Camberley, O=Dummy Company, OU=IT, CN=Server System/emailAddress=server@dummy
        Subject Public Key Info:
            Public Key Algorithm: rsaEncryption
            RSA Public Key: (1024 bit)
                Modulus (1024 bit):
                    00:b4:8f:42:4d:42:09:e9:fe:a1:5a:a6:b8:d2:59:
                    5a:bb:f9:7f:b1:46:2d:09:89:82:e8:93:18:f8:d5:
                    24:6c:b3:0c:bf:9e:f8:de:c5:fd:a8:3a:b6:77:10:
                    35:9c:ca:ce:45:f8:48:da:1f:b8:d6:4c:83:3d:c3:
                    a2:50:7f:5a:01:8b:aa:a3:fd:5d:61:ab:59:03:32:
                    9c:c5:2b:ed:f2:87:56:6e:9f:54:24:0b:6c:97:d8:
                    a9:cd:f1:82:cd:23:ac:a2:78:8c:a3:b5:0e:7a:a1:
                    fa:5d:5f:59:7f:f0:6b:e6:6f:e6:9e:80:91:df:2e:
                    3a:2e:c3:f7:85:81:38:00:a7
                Exponent: 65537 (0x10001)
        X509v3 extensions:
            X509v3 Basic Constraints: 
                CA:FALSE
            Netscape Comment: 
                OpenSSL Generated Certificate
            X509v3 Subject Key Identifier: 
                6D:90:4D:82:B2:B0:C3:9D:EC:56:12:6D:90:C8:5C:85:42:47:8E:6B
            X509v3 Authority Key Identifier: 
                keyid:B0:0F:8B:50:D0:4A:E4:0F:A4:84:31:05:E4:3D:E8:C6:F1:BE:7F:4F

    Signature Algorithm: sha1WithRSAEncryption
        16:53:f4:d2:fc:f7:7e:2e:f0:74:57:4b:75:39:fa:c9:28:d3:
        6f:93:8a:72:63:8c:70:fc:d4:b5:88:25:f8:8d:1a:b7:ff:5f:
        8e:77:38:1f:4e:76:5b:6b:ef:b1:47:c3:86:3b:e9:e6:cd:22:
        7b:4e:49:81:ab:9b:75:8a:1e:69:3a:a0:11:6e:9f:11:a5:a8:
        4c:30:35:8f:6a:9a:20:b3:ae:aa:91:af:22:9b:83:6e:f2:ee:
        e5:b0:b9:74:65:9a:c4:97:99:a2:a3:17:36:44:2a:6a:12:69:
        22:82:6b:11:64:9b:d6:98:b8:ac:03:4d:8b:27:84:ba:a4:c1:
        48:96
-----BEGIN CERTIFICATE-----
MIIC9jCCAl+gAwIBAgIJAIFk43y3sOZSMA0GCSqGSIb3DQEBBQUAMHAxCzAJBgNV
BAYTAkdCMQ8wDQYDVQQIEwZTdXJyZXkxFjAUBgNVBAoTDUR1bW15IENvbXBhbnkx
CzAJBgNVBAsTAklUMRIwEAYDVQQDEwlDQSBQZXJzb24xFzAVBgkqhkiG9w0BCQEW
CGNhQGR1bW15MB4XDTA5MTEyMDA3MDI1NVoXDTEwMTEyMDA3MDI1NVowgYwxCzAJ
BgNVBAYTAkdCMQ8wDQYDVQQIEwZTdXJyZXkxEjAQBgNVBAcTCUNhbWJlcmxleTEW
MBQGA1UEChMNRHVtbXkgQ29tcGFueTELMAkGA1UECxMCSVQxFjAUBgNVBAMTDVNl
cnZlciBTeXN0ZW0xGzAZBgkqhkiG9w0BCQEWDHNlcnZlckBkdW1teTCBnzANBgkq
hkiG9w0BAQEFAAOBjQAwgYkCgYEAtI9CTUIJ6f6hWqa40llau/l/sUYtCYmC6JMY
+NUkbLMMv5743sX9qDq2dxA1nMrORfhI2h+41kyDPcOiUH9aAYuqo/1dYatZAzKc
xSvt8odWbp9UJAtsl9ipzfGCzSOsoniMo7UOeqH6XV9Zf/Br5m/mnoCR3y46LsP3
hYE4AKcCAwEAAaN7MHkwCQYDVR0TBAIwADAsBglghkgBhvhCAQ0EHxYdT3BlblNT
TCBHZW5lcmF0ZWQgQ2VydGlmaWNhdGUwHQYDVR0OBBYEFG2QTYKysMOd7FYSbZDI
XIVCR45rMB8GA1UdIwQYMBaAFLAPi1DQSuQPpIQxBeQ96Mbxvn9PMA0GCSqGSIb3
DQEBBQUAA4GBABZT9NL8934u8HRXS3U5+sko02+TinJjjHD81LWIJfiNGrf/X453
OB9Odltr77FHw4Y76ebNIntOSYGrm3WKHmk6oBFunxGlqEwwNY9qmiCzrqqRryKb
g27y7uWwuXRlmsSXmaKjFzZEKmoSaSKCaxFkm9aYuKwDTYsnhLqkwUiW
-----END CERTIFICATE-----
